target datalayout = "e-m:e-p270:32:32-p271:32:32-p272:64:64-i64:64-i128:128-f80:128-n8:16:32:64-S128"
target triple = "x86_64-pc-linux-gnu"

%class.IntValue = type <{ %class.Value, i32, [4 x i8] }>
%class.Value = type { ptr }

; Function Attrs: mustprogress uwtable
define noundef zeroext i1 @_ZNK8IntValueeqERK5Value(ptr noundef nonnull align 8 dereferenceable(12) %0, ptr noundef nonnull align 8 dereferenceable(8) %1) unnamed_addr #1 align 2 {
  %3 = alloca i1, align 1
  %4 = alloca ptr, align 8
  %5 = alloca ptr, align 8
  store ptr %0, ptr %4, align 8
  store ptr %1, ptr %5, align 8
  %6 = load ptr, ptr %4, align 8
  %7 = load ptr, ptr %5, align 8
  %8 = load ptr, ptr %7, align 8
  %9 = getelementptr inbounds ptr, ptr %8, i64 11
  %10 = load ptr, ptr %9, align 8
  %11 = call noundef zeroext i1 %10(ptr noundef nonnull align 8 dereferenceable(8) %7)
  br i1 %11, label %12, label %21

12:                                               ; preds = %2
  %13 = getelementptr inbounds %class.IntValue, ptr %6, i32 0, i32 1
  %14 = load i32, ptr %13, align 8
  %15 = load ptr, ptr %5, align 8
  %16 = load ptr, ptr %15, align 8
  %17 = getelementptr inbounds ptr, ptr %16, i64 3
  %18 = load ptr, ptr %17, align 8
  %19 = call noundef i32 %18(ptr noundef nonnull align 8 dereferenceable(8) %15)
  %20 = icmp eq i32 %14, %19
  store i1 %20, ptr %3, align 1
  br label %22

21:                                               ; preds = %2
  store i1 false, ptr %3, align 1
  br label %22

22:                                               ; preds = %21, %12
  %23 = load i1, ptr %3, align 1
  ret i1 %23
}